(dp0
I998
(dp1
I0
(dp2
I998
F15320848.080304442
ssI1
(dp3
I998
F16349123.11723591
ssI2
(dp4
I998
F15671796.036079224
ssI3
(dp5
I998
F15158261.723214578
ssI4
(dp6
I998
F3231407947.628003
ssI5
(dp7
I998
F3247825865.81588
ssI6
(dp8
I998
F3135127006.215898
ssI7
(dp9
I998
F3152066861.0584016
ssI8
(dp10
I998
F3214616144.4473095
ssI9
(dp11
I998
F3221289461.5960073
ssI10
(dp12
I998
F3140043942.845713
sscnumpy.core.multiarray
scalar
p13
(cnumpy
dtype
p14
(S'i8'
p15
I0
I1
tp16
Rp17
(I3
S'<'
p18
NNNI-1
I-1
I0
tp19
bS'\x0b\x00\x00\x00\x00\x00\x00\x00'
p20
tp21
Rp22
(dp23
I998
F17761166757115.457
sss.