(dp0
I998
(dp1
I0
(dp2
I998
I5630
ssI1
(dp3
I998
I5810
ssI2
(dp4
I998
I5789
ssI3
(dp5
I998
I5705
ssI4
(dp6
I998
I82121
ssI5
(dp7
I998
I82315
ssI6
(dp8
I998
I82382
ssI7
(dp9
I998
I82602
ssI8
(dp10
I998
I82016
ssI9
(dp11
I998
I82075
ssI10
(dp12
I998
I82626
sscnumpy.core.multiarray
scalar
p13
(cnumpy
dtype
p14
(S'i8'
p15
I0
I1
tp16
Rp17
(I3
S'<'
p18
NNNI-1
I-1
I0
tp19
bS'\x0b\x00\x00\x00\x00\x00\x00\x00'
p20
tp21
Rp22
(dp23
I998
I6219081
sss.