(dp0
I998
(dp1
I0
(dp2
I998
F5438.70112713344
ssI1
(dp3
I998
F5626.309328943524
ssI2
(dp4
I998
F5410.064950350941
ssI3
(dp5
I998
F5323.615790681234
ssI4
(dp6
I998
F78699.8507144335
ssI5
(dp7
I998
F78954.58607665813
ssI6
(dp8
I998
F76128.50433447259
ssI7
(dp9
I998
F76378.96828675077
ssI8
(dp10
I998
F78385.1093309576
ssI9
(dp11
I998
F78488.85664931087
ssI10
(dp12
I998
F76022.10453446422
sscnumpy.core.multiarray
scalar
p13
(cnumpy
dtype
p14
(S'i8'
p15
I0
I1
tp16
Rp17
(I3
S'<'
p18
NNNI-1
I-1
I0
tp19
bS'\x0b\x00\x00\x00\x00\x00\x00\x00'
p20
tp21
Rp22
(dp23
I998
F5712116.330250132
sss.